target datalayout = "e-m:e-p270:32:32-p271:32:32-p272:64:64-i64:64-i128:128-f80:128-n8:16:32:64-S128"
target triple = "x86_64-pc-linux-gnu"

%struct.Qureg = type { i32, i32, i32, i64, i64, i32, i32, %struct.ComplexArray, %struct.ComplexArray, %struct.ComplexArray, ptr, ptr, ptr, ptr, ptr, ptr }
%struct.ComplexArray = type { ptr, ptr }
%struct.PauliHamil = type { ptr, ptr, i32, i32 }

@__func__.applyTrotterCircuit = private unnamed_addr constant [20 x i8] c"applyTrotterCircuit\00", align 1
@.str.21 = private unnamed_addr constant [69 x i8] c"Beginning of Trotter circuit (time %.14g, order %d, %d repetitions).\00", align 1
@.str.22 = private unnamed_addr constant [23 x i8] c"End of Trotter circuit\00", align 1

; Function Attrs: nounwind uwtable
define void @applyTrotterCircuit(ptr noundef byval(%struct.Qureg) align 8 %0, ptr noundef byval(%struct.PauliHamil) align 8 %1, double noundef %2, i32 noundef %3, i32 noundef %4) #0 {
  %6 = alloca double, align 8
  %7 = alloca i32, align 4
  %8 = alloca i32, align 4
  store double %2, ptr %6, align 8, !tbaa !25
  store i32 %3, ptr %7, align 4, !tbaa !4
  store i32 %4, ptr %8, align 4, !tbaa !4
  %9 = load i32, ptr %7, align 4, !tbaa !4
  %10 = load i32, ptr %8, align 4, !tbaa !4
  call void @validateTrotterParams(i32 noundef %9, i32 noundef %10, ptr noundef @__func__.applyTrotterCircuit)
  call void @validatePauliHamil(ptr noundef byval(%struct.PauliHamil) align 8 %1, ptr noundef @__func__.applyTrotterCircuit)
  call void @validateMatchingQuregPauliHamilDims(ptr noundef byval(%struct.Qureg) align 8 %0, ptr noundef byval(%struct.PauliHamil) align 8 %1, ptr noundef @__func__.applyTrotterCircuit)
  %11 = load double, ptr %6, align 8, !tbaa !25
  %12 = load i32, ptr %7, align 4, !tbaa !4
  %13 = load i32, ptr %8, align 4, !tbaa !4
  call void (ptr, ptr, ...) @qasm_recordComment(ptr noundef byval(%struct.Qureg) align 8 %0, ptr noundef @.str.21, double noundef %11, i32 noundef %12, i32 noundef %13)
  %14 = load double, ptr %6, align 8, !tbaa !25
  %15 = load i32, ptr %7, align 4, !tbaa !4
  %16 = load i32, ptr %8, align 4, !tbaa !4
  call void @agnostic_applyTrotterCircuit(ptr noundef byval(%struct.Qureg) align 8 %0, ptr noundef byval(%struct.PauliHamil) align 8 %1, double noundef %14, i32 noundef %15, i32 noundef %16)
  call void (ptr, ptr, ...) @qasm_recordComment(ptr noundef byval(%struct.Qureg) align 8 %0, ptr noundef @.str.22)
  ret void
}