; Function Attrs: nounwind uwtable
define void @applyTrotterCircuit(ptr noundef readonly byval(%struct.Qureg) align 8 captures(none) %0, ptr noundef readonly byval(%struct.PauliHamil) align 8 captures(none) %1, double noundef %2, i32 noundef %3, i32 noundef %4) local_unnamed_addr #0 {
  tail call void @validateTrotterParams(i32 noundef %3, i32 noundef %4, ptr noundef nonnull @__func__.applyTrotterCircuit) #17
  tail call void @validatePauliHamil(ptr noundef nonnull byval(%struct.PauliHamil) align 8 %1, ptr noundef nonnull @__func__.applyTrotterCircuit) #17
  tail call void @validateMatchingQuregPauliHamilDims(ptr noundef nonnull byval(%struct.Qureg) align 8 %0, ptr noundef nonnull byval(%struct.PauliHamil) align 8 %1, ptr noundef nonnull @__func__.applyTrotterCircuit) #17
  tail call void (ptr, ptr, ...) @qasm_recordComment(ptr noundef nonnull byval(%struct.Qureg) align 8 %0, ptr noundef nonnull @.str.21, double noundef %2, i32 noundef %3, i32 noundef %4) #17
  tail call void @agnostic_applyTrotterCircuit(ptr noundef nonnull byval(%struct.Qureg) align 8 %0, ptr noundef nonnull byval(%struct.PauliHamil) align 8 %1, double noundef %2, i32 noundef %3, i32 noundef %4) #17
  tail call void (ptr, ptr, ...) @qasm_recordComment(ptr noundef nonnull byval(%struct.Qureg) align 8 %0, ptr noundef nonnull @.str.22) #17
  ret void
}